target datalayout = "e-m:e-p270:32:32-p271:32:32-p272:64:64-i64:64-i128:128-f80:128-n8:16:32:64-S128"
target triple = "x86_64-pc-linux-gnu"

; Function Attrs: mustprogress nounwind uwtable
define internal noundef zeroext i8 @_ZN5YosysL9logic_andENS_5RTLIL5StateES1_(i8 noundef zeroext %0, i8 noundef zeroext %1) #6 {
  %3 = alloca i8, align 1
  %4 = alloca i8, align 1
  %5 = alloca i8, align 1
  store i8 %0, ptr %4, align 1, !tbaa !17
  store i8 %1, ptr %5, align 1, !tbaa !17
  %6 = load i8, ptr %4, align 1, !tbaa !17
  %7 = zext i8 %6 to i32
  %8 = icmp eq i32 %7, 0
  br i1 %8, label %9, label %10

9:                                                ; preds = %2
  store i8 0, ptr %3, align 1
  br label %26

10:                                               ; preds = %2
  %11 = load i8, ptr %5, align 1, !tbaa !17
  %12 = zext i8 %11 to i32
  %13 = icmp eq i32 %12, 0
  br i1 %13, label %14, label %15

14:                                               ; preds = %10
  store i8 0, ptr %3, align 1
  br label %26

15:                                               ; preds = %10
  %16 = load i8, ptr %4, align 1, !tbaa !17
  %17 = zext i8 %16 to i32
  %18 = icmp ne i32 %17, 1
  br i1 %18, label %19, label %20

19:                                               ; preds = %15
  store i8 2, ptr %3, align 1
  br label %26

20:                                               ; preds = %15
  %21 = load i8, ptr %5, align 1, !tbaa !17
  %22 = zext i8 %21 to i32
  %23 = icmp ne i32 %22, 1
  br i1 %23, label %24, label %25

24:                                               ; preds = %20
  store i8 2, ptr %3, align 1
  br label %26

25:                                               ; preds = %20
  store i8 1, ptr %3, align 1
  br label %26

26:                                               ; preds = %25, %24, %19, %14, %9
  %27 = load i8, ptr %3, align 1
  ret i8 %27
}